
/home/binhkieudo/Workspace/riscv_framework/software/fsbl/build/sd.elf:     file format elf64-littleriscv


Disassembly of section .text:

0000000080000000 <_prog_start>:

  .section .text.init
  .option norvc
  .globl _prog_start
_prog_start:
  li s1, 0
    80000000:	00000493          	li	s1,0
  csrw mie, s1
    80000004:	30449073          	csrw	mie,s1
  csrr a0, mhartid
    80000008:	f1402573          	csrr	a0,mhartid
  li s1, 0
    8000000c:	00000493          	li	s1,0
  beq a0, s1, _hart0
    80000010:	00950e63          	beq	a0,s1,8000002c <_hart0>
  li s1, 1
    80000014:	00100493          	li	s1,1
  beq a0, s1, _hart1
    80000018:	04950463          	beq	a0,s1,80000060 <_hart1>
  li s1, 2
    8000001c:	00200493          	li	s1,2
  beq a0, s1, _hart2
    80000020:	06950c63          	beq	a0,s1,80000098 <_hart2>
  li s1, 3
    80000024:	00300493          	li	s1,3
  beq a0, s1, _hart3  
    80000028:	0a950463          	beq	a0,s1,800000d0 <_hart3>

000000008000002c <_hart0>:
_hart0:
  li s1, 0
    8000002c:	00000493          	li	s1,0
  li t0, (CLINT_CTRL_ADDR + CLINT_MSIP0)
    80000030:	020002b7          	lui	t0,0x2000
  amoswap.w t1, s1, (t0)
    80000034:	0892a32f          	amoswap.w	t1,s1,(t0)
  li sp, (MEMORY_MEM_ADDR + 0xFFFC0)
    80000038:	00001137          	lui	sp,0x1
    8000003c:	8011011b          	addiw	sp,sp,-2047 # 801 <_prog_start-0x7ffff7ff>
    80000040:	01411113          	slli	sp,sp,0x14
    80000044:	fc010113          	addi	sp,sp,-64
  call main
    80000048:	13d000ef          	jal	ra,80000984 <main>
  li s1, 1
    8000004c:	00100493          	li	s1,1
  li t0, (CLINT_CTRL_ADDR + CLINT_MSIP1)
    80000050:	020002b7          	lui	t0,0x2000
    80000054:	0042829b          	addiw	t0,t0,4 # 2000004 <_prog_start-0x7dfffffc>
  amoswap.w t1, s1, (t0)
    80000058:	0892a32f          	amoswap.w	t1,s1,(t0)
  j  _exit
    8000005c:	0980006f          	j	800000f4 <_exit>

0000000080000060 <_hart1>:
_hart1:
  li s1, 0
    80000060:	00000493          	li	s1,0
  li t0, (CLINT_CTRL_ADDR + CLINT_MSIP1)
    80000064:	020002b7          	lui	t0,0x2000
    80000068:	0042829b          	addiw	t0,t0,4 # 2000004 <_prog_start-0x7dfffffc>
  amoswap.w t1, s1, (t0)
    8000006c:	0892a32f          	amoswap.w	t1,s1,(t0)
  li sp, (MEMORY_MEM_ADDR + 0xFFFC0)
    80000070:	00001137          	lui	sp,0x1
    80000074:	8011011b          	addiw	sp,sp,-2047 # 801 <_prog_start-0x7ffff7ff>
    80000078:	01411113          	slli	sp,sp,0x14
    8000007c:	fc010113          	addi	sp,sp,-64
  call main
    80000080:	105000ef          	jal	ra,80000984 <main>
  li s1, 1
    80000084:	00100493          	li	s1,1
  li t0, (CLINT_CTRL_ADDR + CLINT_MSIP2)
    80000088:	020002b7          	lui	t0,0x2000
    8000008c:	0082829b          	addiw	t0,t0,8 # 2000008 <_prog_start-0x7dfffff8>
  amoswap.w t1, s1, (t0)
    80000090:	0892a32f          	amoswap.w	t1,s1,(t0)
  j  _exit
    80000094:	0600006f          	j	800000f4 <_exit>

0000000080000098 <_hart2>:
_hart2:
  li s1, 0
    80000098:	00000493          	li	s1,0
  li t0, (CLINT_CTRL_ADDR + CLINT_MSIP2)
    8000009c:	020002b7          	lui	t0,0x2000
    800000a0:	0082829b          	addiw	t0,t0,8 # 2000008 <_prog_start-0x7dfffff8>
  amoswap.w t1, s1, (t0)
    800000a4:	0892a32f          	amoswap.w	t1,s1,(t0)
  li sp, (MEMORY_MEM_ADDR + 0xFFFC0)
    800000a8:	00001137          	lui	sp,0x1
    800000ac:	8011011b          	addiw	sp,sp,-2047 # 801 <_prog_start-0x7ffff7ff>
    800000b0:	01411113          	slli	sp,sp,0x14
    800000b4:	fc010113          	addi	sp,sp,-64
  call main
    800000b8:	0cd000ef          	jal	ra,80000984 <main>
  li s1, 1
    800000bc:	00100493          	li	s1,1
  li t0, (CLINT_CTRL_ADDR + CLINT_MSIP3)
    800000c0:	020002b7          	lui	t0,0x2000
    800000c4:	00c2829b          	addiw	t0,t0,12 # 200000c <_prog_start-0x7dfffff4>
  amoswap.w t1, s1, (t0)
    800000c8:	0892a32f          	amoswap.w	t1,s1,(t0)
  j  _exit
    800000cc:	0280006f          	j	800000f4 <_exit>

00000000800000d0 <_hart3>:
_hart3:
  li s1, 0
    800000d0:	00000493          	li	s1,0
  li t0, (CLINT_CTRL_ADDR + CLINT_MSIP3)
    800000d4:	020002b7          	lui	t0,0x2000
    800000d8:	00c2829b          	addiw	t0,t0,12 # 200000c <_prog_start-0x7dfffff4>
  amoswap.w t1, s1, (t0)
    800000dc:	0892a32f          	amoswap.w	t1,s1,(t0)
  li sp, (MEMORY_MEM_ADDR + 0xFFFC0)
    800000e0:	00001137          	lui	sp,0x1
    800000e4:	8011011b          	addiw	sp,sp,-2047 # 801 <_prog_start-0x7ffff7ff>
    800000e8:	01411113          	slli	sp,sp,0x14
    800000ec:	fc010113          	addi	sp,sp,-64
  call main
    800000f0:	095000ef          	jal	ra,80000984 <main>

00000000800000f4 <_exit>:
_exit:
  li s1, 0x8
    800000f4:	00800493          	li	s1,8
  csrw mie, s1
    800000f8:	30449073          	csrw	mie,s1

00000000800000fc <_loop>:
_loop:
  j _loop
    800000fc:	0000006f          	j	800000fc <_loop>
  csrr a0, mhartid
    80000100:	f1402573          	csrr	a0,mhartid
  la a1, dtb // dtb address for next level bootloader
    80000104:	00001597          	auipc	a1,0x1
    80000108:	e0458593          	addi	a1,a1,-508 # 80000f08 <dtb>
  li s1, PAYLOAD_DEST
    8000010c:	0810049b          	addiw	s1,zero,129
    80000110:	01849493          	slli	s1,s1,0x18
  jr s1
    80000114:	00048067          	jr	s1

0000000080000118 <_trap>:
_trap:
  j _trap
    80000118:	0000006f          	j	80000118 <_trap>

000000008000011c <kputc>:
  #define UART_CTRL_ADDR _UART_CTRL_ADDR(UART_NUM)
#endif
static volatile uint32_t * const uart = (void *)(UART_CTRL_ADDR);

static inline void kputc(char c)
{
    8000011c:	fd010113          	addi	sp,sp,-48
    80000120:	02813423          	sd	s0,40(sp)
    80000124:	03010413          	addi	s0,sp,48
    80000128:	00050793          	mv	a5,a0
    8000012c:	fcf40fa3          	sb	a5,-33(s0)
	volatile uint32_t *tx = &REG32(uart, UART_REG_TXFIFO);
    80000130:	640007b7          	lui	a5,0x64000
    80000134:	fef43423          	sd	a5,-24(s0)
#ifdef __riscv_atomic
	int32_t r;
	do {
		__asm__ __volatile__ (
    80000138:	fe843703          	ld	a4,-24(s0)
    8000013c:	fdf44783          	lbu	a5,-33(s0)
    80000140:	00078693          	mv	a3,a5
    80000144:	fe843783          	ld	a5,-24(s0)
    80000148:	40d727af          	amoor.w	a5,a3,(a4)
    8000014c:	fef42223          	sw	a5,-28(s0)
			"amoor.w %0, %2, %1\n"
			: "=r" (r), "+A" (*tx)
			: "r" (c));
	} while (r < 0);
    80000150:	fe442783          	lw	a5,-28(s0)
    80000154:	0007879b          	sext.w	a5,a5
    80000158:	fe07c0e3          	bltz	a5,80000138 <kputc+0x1c>
#else
	while ((int32_t)(*tx) < 0);
	*tx = c;
#endif
}
    8000015c:	00000013          	nop
    80000160:	00000013          	nop
    80000164:	02813403          	ld	s0,40(sp)
    80000168:	03010113          	addi	sp,sp,48
    8000016c:	00008067          	ret

0000000080000170 <spi_xfer>:
#define F_CLK TL_CLK

static volatile uint32_t * const spi = (void *)(SPI_CTRL_ADDR);

static inline uint8_t spi_xfer(uint8_t d)
{
    80000170:	fd010113          	addi	sp,sp,-48
    80000174:	02813423          	sd	s0,40(sp)
    80000178:	03010413          	addi	s0,sp,48
    8000017c:	00050793          	mv	a5,a0
    80000180:	fcf40fa3          	sb	a5,-33(s0)
	int32_t r;

	REG32(spi, SPI_REG_TXFIFO) = d;
    80000184:	640037b7          	lui	a5,0x64003
    80000188:	04878793          	addi	a5,a5,72 # 64003048 <_prog_start-0x1bffcfb8>
    8000018c:	fdf44703          	lbu	a4,-33(s0)
    80000190:	0007071b          	sext.w	a4,a4
    80000194:	00e7a023          	sw	a4,0(a5)
	do {
		r = REG32(spi, SPI_REG_RXFIFO);
    80000198:	640037b7          	lui	a5,0x64003
    8000019c:	04c78793          	addi	a5,a5,76 # 6400304c <_prog_start-0x1bffcfb4>
    800001a0:	0007a783          	lw	a5,0(a5)
    800001a4:	0007879b          	sext.w	a5,a5
    800001a8:	fef42623          	sw	a5,-20(s0)
	} while (r < 0);
    800001ac:	fec42783          	lw	a5,-20(s0)
    800001b0:	0007879b          	sext.w	a5,a5
    800001b4:	fe07c2e3          	bltz	a5,80000198 <spi_xfer+0x28>
	return r;
    800001b8:	fec42783          	lw	a5,-20(s0)
    800001bc:	0ff7f793          	zext.b	a5,a5
}
    800001c0:	00078513          	mv	a0,a5
    800001c4:	02813403          	ld	s0,40(sp)
    800001c8:	03010113          	addi	sp,sp,48
    800001cc:	00008067          	ret

00000000800001d0 <sd_dummy>:

static inline uint8_t sd_dummy(void)
{
    800001d0:	ff010113          	addi	sp,sp,-16
    800001d4:	00113423          	sd	ra,8(sp)
    800001d8:	00813023          	sd	s0,0(sp)
    800001dc:	01010413          	addi	s0,sp,16
	return spi_xfer(0xFF);
    800001e0:	0ff00513          	li	a0,255
    800001e4:	f8dff0ef          	jal	ra,80000170 <spi_xfer>
    800001e8:	00050793          	mv	a5,a0
}
    800001ec:	00078513          	mv	a0,a5
    800001f0:	00813083          	ld	ra,8(sp)
    800001f4:	00013403          	ld	s0,0(sp)
    800001f8:	01010113          	addi	sp,sp,16
    800001fc:	00008067          	ret

0000000080000200 <sd_cmd>:

static uint8_t sd_cmd(uint8_t cmd, uint32_t arg, uint8_t crc)
{
    80000200:	fd010113          	addi	sp,sp,-48
    80000204:	02113423          	sd	ra,40(sp)
    80000208:	02813023          	sd	s0,32(sp)
    8000020c:	03010413          	addi	s0,sp,48
    80000210:	00050793          	mv	a5,a0
    80000214:	00058693          	mv	a3,a1
    80000218:	00060713          	mv	a4,a2
    8000021c:	fcf40fa3          	sb	a5,-33(s0)
    80000220:	00068793          	mv	a5,a3
    80000224:	fcf42c23          	sw	a5,-40(s0)
    80000228:	00070793          	mv	a5,a4
    8000022c:	fcf40f23          	sb	a5,-34(s0)
	unsigned long n;
	uint8_t r;

	REG32(spi, SPI_REG_CSMODE) = SPI_CSMODE_HOLD;
    80000230:	640037b7          	lui	a5,0x64003
    80000234:	01878793          	addi	a5,a5,24 # 64003018 <_prog_start-0x1bffcfe8>
    80000238:	00200713          	li	a4,2
    8000023c:	00e7a023          	sw	a4,0(a5)
	sd_dummy();
    80000240:	f91ff0ef          	jal	ra,800001d0 <sd_dummy>
	spi_xfer(cmd);
    80000244:	fdf44783          	lbu	a5,-33(s0)
    80000248:	00078513          	mv	a0,a5
    8000024c:	f25ff0ef          	jal	ra,80000170 <spi_xfer>
	spi_xfer(arg >> 24);
    80000250:	fd842783          	lw	a5,-40(s0)
    80000254:	0187d79b          	srliw	a5,a5,0x18
    80000258:	0007879b          	sext.w	a5,a5
    8000025c:	0ff7f793          	zext.b	a5,a5
    80000260:	00078513          	mv	a0,a5
    80000264:	f0dff0ef          	jal	ra,80000170 <spi_xfer>
	spi_xfer(arg >> 16);
    80000268:	fd842783          	lw	a5,-40(s0)
    8000026c:	0107d79b          	srliw	a5,a5,0x10
    80000270:	0007879b          	sext.w	a5,a5
    80000274:	0ff7f793          	zext.b	a5,a5
    80000278:	00078513          	mv	a0,a5
    8000027c:	ef5ff0ef          	jal	ra,80000170 <spi_xfer>
	spi_xfer(arg >> 8);
    80000280:	fd842783          	lw	a5,-40(s0)
    80000284:	0087d79b          	srliw	a5,a5,0x8
    80000288:	0007879b          	sext.w	a5,a5
    8000028c:	0ff7f793          	zext.b	a5,a5
    80000290:	00078513          	mv	a0,a5
    80000294:	eddff0ef          	jal	ra,80000170 <spi_xfer>
	spi_xfer(arg);
    80000298:	fd842783          	lw	a5,-40(s0)
    8000029c:	0ff7f793          	zext.b	a5,a5
    800002a0:	00078513          	mv	a0,a5
    800002a4:	ecdff0ef          	jal	ra,80000170 <spi_xfer>
	spi_xfer(crc);
    800002a8:	fde44783          	lbu	a5,-34(s0)
    800002ac:	00078513          	mv	a0,a5
    800002b0:	ec1ff0ef          	jal	ra,80000170 <spi_xfer>

	n = 1000;
    800002b4:	3e800793          	li	a5,1000
    800002b8:	fef43423          	sd	a5,-24(s0)
	do {
		r = sd_dummy();
    800002bc:	f15ff0ef          	jal	ra,800001d0 <sd_dummy>
    800002c0:	00050793          	mv	a5,a0
    800002c4:	fef403a3          	sb	a5,-25(s0)
		if (!(r & 0x80)) {
    800002c8:	fe740783          	lb	a5,-25(s0)
    800002cc:	0207d463          	bgez	a5,800002f4 <sd_cmd+0xf4>
//			dprintf("sd:cmd: %hx\r\n", r);
			goto done;
		}
	} while (--n > 0);
    800002d0:	fe843783          	ld	a5,-24(s0)
    800002d4:	fff78793          	addi	a5,a5,-1
    800002d8:	fef43423          	sd	a5,-24(s0)
    800002dc:	fe843783          	ld	a5,-24(s0)
    800002e0:	fc079ee3          	bnez	a5,800002bc <sd_cmd+0xbc>
	kputs("sd_cmd: timeout");
    800002e4:	00001517          	auipc	a0,0x1
    800002e8:	af450513          	addi	a0,a0,-1292 # 80000dd8 <uart+0x8>
    800002ec:	00d000ef          	jal	ra,80000af8 <kputs>
    800002f0:	0080006f          	j	800002f8 <sd_cmd+0xf8>
			goto done;
    800002f4:	00000013          	nop
done:
	return r;
    800002f8:	fe744783          	lbu	a5,-25(s0)
}
    800002fc:	00078513          	mv	a0,a5
    80000300:	02813083          	ld	ra,40(sp)
    80000304:	02013403          	ld	s0,32(sp)
    80000308:	03010113          	addi	sp,sp,48
    8000030c:	00008067          	ret

0000000080000310 <sd_cmd_end>:

static inline void sd_cmd_end(void)
{
    80000310:	ff010113          	addi	sp,sp,-16
    80000314:	00113423          	sd	ra,8(sp)
    80000318:	00813023          	sd	s0,0(sp)
    8000031c:	01010413          	addi	s0,sp,16
	sd_dummy();
    80000320:	eb1ff0ef          	jal	ra,800001d0 <sd_dummy>
	REG32(spi, SPI_REG_CSMODE) = SPI_CSMODE_AUTO;
    80000324:	640037b7          	lui	a5,0x64003
    80000328:	01878793          	addi	a5,a5,24 # 64003018 <_prog_start-0x1bffcfe8>
    8000032c:	0007a023          	sw	zero,0(a5)
}
    80000330:	00000013          	nop
    80000334:	00813083          	ld	ra,8(sp)
    80000338:	00013403          	ld	s0,0(sp)
    8000033c:	01010113          	addi	sp,sp,16
    80000340:	00008067          	ret

0000000080000344 <sd_poweron>:


static void sd_poweron(void)
{
    80000344:	fe010113          	addi	sp,sp,-32
    80000348:	00113c23          	sd	ra,24(sp)
    8000034c:	00813823          	sd	s0,16(sp)
    80000350:	02010413          	addi	s0,sp,32
	long i;
	REG32(spi, SPI_REG_SCKDIV) = (F_CLK / 300000UL);
    80000354:	640037b7          	lui	a5,0x64003
    80000358:	00300713          	li	a4,3
    8000035c:	00e7a023          	sw	a4,0(a5) # 64003000 <_prog_start-0x1bffd000>
	REG32(spi, SPI_REG_CSMODE) = SPI_CSMODE_OFF;
    80000360:	640037b7          	lui	a5,0x64003
    80000364:	01878793          	addi	a5,a5,24 # 64003018 <_prog_start-0x1bffcfe8>
    80000368:	00300713          	li	a4,3
    8000036c:	00e7a023          	sw	a4,0(a5)
	for (i = 10; i > 0; i--) {
    80000370:	00a00793          	li	a5,10
    80000374:	fef43423          	sd	a5,-24(s0)
    80000378:	0140006f          	j	8000038c <sd_poweron+0x48>
		sd_dummy();
    8000037c:	e55ff0ef          	jal	ra,800001d0 <sd_dummy>
	for (i = 10; i > 0; i--) {
    80000380:	fe843783          	ld	a5,-24(s0)
    80000384:	fff78793          	addi	a5,a5,-1
    80000388:	fef43423          	sd	a5,-24(s0)
    8000038c:	fe843783          	ld	a5,-24(s0)
    80000390:	fef046e3          	bgtz	a5,8000037c <sd_poweron+0x38>
	}
	REG32(spi, SPI_REG_CSMODE) = SPI_CSMODE_AUTO;
    80000394:	640037b7          	lui	a5,0x64003
    80000398:	01878793          	addi	a5,a5,24 # 64003018 <_prog_start-0x1bffcfe8>
    8000039c:	0007a023          	sw	zero,0(a5)
}
    800003a0:	00000013          	nop
    800003a4:	01813083          	ld	ra,24(sp)
    800003a8:	01013403          	ld	s0,16(sp)
    800003ac:	02010113          	addi	sp,sp,32
    800003b0:	00008067          	ret

00000000800003b4 <sd_cmd0>:

// Go Idle state 8'b0100_0000
static int sd_cmd0(void)
{
    800003b4:	fe010113          	addi	sp,sp,-32
    800003b8:	00113c23          	sd	ra,24(sp)
    800003bc:	00813823          	sd	s0,16(sp)
    800003c0:	02010413          	addi	s0,sp,32
	int rc;
	dputs("CMD0");
    800003c4:	00001517          	auipc	a0,0x1
    800003c8:	a2450513          	addi	a0,a0,-1500 # 80000de8 <uart+0x18>
    800003cc:	72c000ef          	jal	ra,80000af8 <kputs>
	rc = (sd_cmd(0x40, 0, 0x95) != 0x01);
    800003d0:	09500613          	li	a2,149
    800003d4:	00000593          	li	a1,0
    800003d8:	04000513          	li	a0,64
    800003dc:	e25ff0ef          	jal	ra,80000200 <sd_cmd>
    800003e0:	00050793          	mv	a5,a0
    800003e4:	0007871b          	sext.w	a4,a5
    800003e8:	00100793          	li	a5,1
    800003ec:	40f707b3          	sub	a5,a4,a5
    800003f0:	00f037b3          	snez	a5,a5
    800003f4:	0ff7f793          	zext.b	a5,a5
    800003f8:	fef42623          	sw	a5,-20(s0)
	sd_cmd_end();
    800003fc:	f15ff0ef          	jal	ra,80000310 <sd_cmd_end>
	return rc;
    80000400:	fec42783          	lw	a5,-20(s0)
}
    80000404:	00078513          	mv	a0,a5
    80000408:	01813083          	ld	ra,24(sp)
    8000040c:	01013403          	ld	s0,16(sp)
    80000410:	02010113          	addi	sp,sp,32
    80000414:	00008067          	ret

0000000080000418 <sd_cmd8>:

// Check voltage range 8'b0100_1000
static int sd_cmd8(void)
{
    80000418:	fe010113          	addi	sp,sp,-32
    8000041c:	00113c23          	sd	ra,24(sp)
    80000420:	00813823          	sd	s0,16(sp)
    80000424:	02010413          	addi	s0,sp,32
	int rc;
	dputs("CMD8");
    80000428:	00001517          	auipc	a0,0x1
    8000042c:	9c850513          	addi	a0,a0,-1592 # 80000df0 <uart+0x20>
    80000430:	6c8000ef          	jal	ra,80000af8 <kputs>
	rc = (sd_cmd(0x48, 0x000001AA, 0x87) != 0x01);
    80000434:	08700613          	li	a2,135
    80000438:	1aa00593          	li	a1,426
    8000043c:	04800513          	li	a0,72
    80000440:	dc1ff0ef          	jal	ra,80000200 <sd_cmd>
    80000444:	00050793          	mv	a5,a0
    80000448:	0007871b          	sext.w	a4,a5
    8000044c:	00100793          	li	a5,1
    80000450:	40f707b3          	sub	a5,a4,a5
    80000454:	00f037b3          	snez	a5,a5
    80000458:	0ff7f793          	zext.b	a5,a5
    8000045c:	fef42623          	sw	a5,-20(s0)
	sd_dummy(); /* command version; reserved */
    80000460:	d71ff0ef          	jal	ra,800001d0 <sd_dummy>
	sd_dummy(); /* reserved */
    80000464:	d6dff0ef          	jal	ra,800001d0 <sd_dummy>
	rc |= ((sd_dummy() & 0xF) != 0x1); /* voltage */
    80000468:	d69ff0ef          	jal	ra,800001d0 <sd_dummy>
    8000046c:	00050793          	mv	a5,a0
    80000470:	0007879b          	sext.w	a5,a5
    80000474:	00f7f793          	andi	a5,a5,15
    80000478:	0007879b          	sext.w	a5,a5
    8000047c:	00078713          	mv	a4,a5
    80000480:	00100793          	li	a5,1
    80000484:	40f707b3          	sub	a5,a4,a5
    80000488:	00f037b3          	snez	a5,a5
    8000048c:	0ff7f793          	zext.b	a5,a5
    80000490:	0007879b          	sext.w	a5,a5
    80000494:	fec42703          	lw	a4,-20(s0)
    80000498:	00e7e7b3          	or	a5,a5,a4
    8000049c:	fef42623          	sw	a5,-20(s0)
	rc |= (sd_dummy() != 0xAA); /* check pattern */
    800004a0:	d31ff0ef          	jal	ra,800001d0 <sd_dummy>
    800004a4:	00050793          	mv	a5,a0
    800004a8:	0007871b          	sext.w	a4,a5
    800004ac:	0aa00793          	li	a5,170
    800004b0:	40f707b3          	sub	a5,a4,a5
    800004b4:	00f037b3          	snez	a5,a5
    800004b8:	0ff7f793          	zext.b	a5,a5
    800004bc:	0007879b          	sext.w	a5,a5
    800004c0:	fec42703          	lw	a4,-20(s0)
    800004c4:	00e7e7b3          	or	a5,a5,a4
    800004c8:	fef42623          	sw	a5,-20(s0)
	sd_cmd_end();
    800004cc:	e45ff0ef          	jal	ra,80000310 <sd_cmd_end>
	return rc;
    800004d0:	fec42783          	lw	a5,-20(s0)
}
    800004d4:	00078513          	mv	a0,a5
    800004d8:	01813083          	ld	ra,24(sp)
    800004dc:	01013403          	ld	s0,16(sp)
    800004e0:	02010113          	addi	sp,sp,32
    800004e4:	00008067          	ret

00000000800004e8 <sd_cmd55>:

// Leading command of ACMD<n> command 8'b0111_0111
static void sd_cmd55(void)
{
    800004e8:	ff010113          	addi	sp,sp,-16
    800004ec:	00113423          	sd	ra,8(sp)
    800004f0:	00813023          	sd	s0,0(sp)
    800004f4:	01010413          	addi	s0,sp,16
	sd_cmd(0x77, 0, 0x65);
    800004f8:	06500613          	li	a2,101
    800004fc:	00000593          	li	a1,0
    80000500:	07700513          	li	a0,119
    80000504:	cfdff0ef          	jal	ra,80000200 <sd_cmd>
	sd_cmd_end();
    80000508:	e09ff0ef          	jal	ra,80000310 <sd_cmd_end>
}
    8000050c:	00000013          	nop
    80000510:	00813083          	ld	ra,8(sp)
    80000514:	00013403          	ld	s0,0(sp)
    80000518:	01010113          	addi	sp,sp,16
    8000051c:	00008067          	ret

0000000080000520 <sd_acmd41>:

// Initiate initialization process 8'b0110_1001
static int sd_acmd41(void)
{
    80000520:	fe010113          	addi	sp,sp,-32
    80000524:	00113c23          	sd	ra,24(sp)
    80000528:	00813823          	sd	s0,16(sp)
    8000052c:	02010413          	addi	s0,sp,32
	uint8_t r;
	dputs("ACMD41");
    80000530:	00001517          	auipc	a0,0x1
    80000534:	8c850513          	addi	a0,a0,-1848 # 80000df8 <uart+0x28>
    80000538:	5c0000ef          	jal	ra,80000af8 <kputs>
	do {
		sd_cmd55();
    8000053c:	fadff0ef          	jal	ra,800004e8 <sd_cmd55>
		r = sd_cmd(0x69, 0x40000000, 0x77); /* HCS = 1 */
    80000540:	07700613          	li	a2,119
    80000544:	400005b7          	lui	a1,0x40000
    80000548:	06900513          	li	a0,105
    8000054c:	cb5ff0ef          	jal	ra,80000200 <sd_cmd>
    80000550:	00050793          	mv	a5,a0
    80000554:	fef407a3          	sb	a5,-17(s0)
	} while (r == 0x01);
    80000558:	fef44783          	lbu	a5,-17(s0)
    8000055c:	0ff7f713          	zext.b	a4,a5
    80000560:	00100793          	li	a5,1
    80000564:	fcf70ce3          	beq	a4,a5,8000053c <sd_acmd41+0x1c>
	return (r != 0x00);
    80000568:	fef44783          	lbu	a5,-17(s0)
    8000056c:	0007879b          	sext.w	a5,a5
    80000570:	00f037b3          	snez	a5,a5
    80000574:	0ff7f793          	zext.b	a5,a5
    80000578:	0007879b          	sext.w	a5,a5
}
    8000057c:	00078513          	mv	a0,a5
    80000580:	01813083          	ld	ra,24(sp)
    80000584:	01013403          	ld	s0,16(sp)
    80000588:	02010113          	addi	sp,sp,32
    8000058c:	00008067          	ret

0000000080000590 <sd_cmd58>:

// Read OCR 8'b0111_1010
static int sd_cmd58(void)
{
    80000590:	fe010113          	addi	sp,sp,-32
    80000594:	00113c23          	sd	ra,24(sp)
    80000598:	00813823          	sd	s0,16(sp)
    8000059c:	02010413          	addi	s0,sp,32
	int rc;
	dputs("CMD58");
    800005a0:	00001517          	auipc	a0,0x1
    800005a4:	86050513          	addi	a0,a0,-1952 # 80000e00 <uart+0x30>
    800005a8:	550000ef          	jal	ra,80000af8 <kputs>
	rc = (sd_cmd(0x7A, 0, 0xFD) != 0x00);
    800005ac:	0fd00613          	li	a2,253
    800005b0:	00000593          	li	a1,0
    800005b4:	07a00513          	li	a0,122
    800005b8:	c49ff0ef          	jal	ra,80000200 <sd_cmd>
    800005bc:	00050793          	mv	a5,a0
    800005c0:	0007879b          	sext.w	a5,a5
    800005c4:	00f037b3          	snez	a5,a5
    800005c8:	0ff7f793          	zext.b	a5,a5
    800005cc:	fef42623          	sw	a5,-20(s0)
	rc |= ((sd_dummy() & 0x80) != 0x80); /* Power up status */
    800005d0:	c01ff0ef          	jal	ra,800001d0 <sd_dummy>
    800005d4:	00050793          	mv	a5,a0
    800005d8:	0007879b          	sext.w	a5,a5
    800005dc:	0807f793          	andi	a5,a5,128
    800005e0:	0007879b          	sext.w	a5,a5
    800005e4:	00078713          	mv	a4,a5
    800005e8:	08000793          	li	a5,128
    800005ec:	40f707b3          	sub	a5,a4,a5
    800005f0:	00f037b3          	snez	a5,a5
    800005f4:	0ff7f793          	zext.b	a5,a5
    800005f8:	0007879b          	sext.w	a5,a5
    800005fc:	fec42703          	lw	a4,-20(s0)
    80000600:	00e7e7b3          	or	a5,a5,a4
    80000604:	fef42623          	sw	a5,-20(s0)
	sd_dummy();
    80000608:	bc9ff0ef          	jal	ra,800001d0 <sd_dummy>
	sd_dummy();
    8000060c:	bc5ff0ef          	jal	ra,800001d0 <sd_dummy>
	sd_dummy();
    80000610:	bc1ff0ef          	jal	ra,800001d0 <sd_dummy>
	sd_cmd_end();
    80000614:	cfdff0ef          	jal	ra,80000310 <sd_cmd_end>
	return rc;
    80000618:	fec42783          	lw	a5,-20(s0)
}
    8000061c:	00078513          	mv	a0,a5
    80000620:	01813083          	ld	ra,24(sp)
    80000624:	01013403          	ld	s0,16(sp)
    80000628:	02010113          	addi	sp,sp,32
    8000062c:	00008067          	ret

0000000080000630 <sd_cmd16>:

// 	Change R/W block size. 8'b0101_0000
static int sd_cmd16(void)
{
    80000630:	fe010113          	addi	sp,sp,-32
    80000634:	00113c23          	sd	ra,24(sp)
    80000638:	00813823          	sd	s0,16(sp)
    8000063c:	02010413          	addi	s0,sp,32
	int rc;
	dputs("CMD16");
    80000640:	00000517          	auipc	a0,0x0
    80000644:	7c850513          	addi	a0,a0,1992 # 80000e08 <uart+0x38>
    80000648:	4b0000ef          	jal	ra,80000af8 <kputs>
	rc = (sd_cmd(0x50, 0x200, 0x15) != 0x00);
    8000064c:	01500613          	li	a2,21
    80000650:	20000593          	li	a1,512
    80000654:	05000513          	li	a0,80
    80000658:	ba9ff0ef          	jal	ra,80000200 <sd_cmd>
    8000065c:	00050793          	mv	a5,a0
    80000660:	0007879b          	sext.w	a5,a5
    80000664:	00f037b3          	snez	a5,a5
    80000668:	0ff7f793          	zext.b	a5,a5
    8000066c:	fef42623          	sw	a5,-20(s0)
	sd_cmd_end();
    80000670:	ca1ff0ef          	jal	ra,80000310 <sd_cmd_end>
	return rc;
    80000674:	fec42783          	lw	a5,-20(s0)
}
    80000678:	00078513          	mv	a0,a5
    8000067c:	01813083          	ld	ra,24(sp)
    80000680:	01013403          	ld	s0,16(sp)
    80000684:	02010113          	addi	sp,sp,32
    80000688:	00008067          	ret

000000008000068c <crc16_round>:

static uint16_t crc16_round(uint16_t crc, uint8_t data) {
    8000068c:	fe010113          	addi	sp,sp,-32
    80000690:	00813c23          	sd	s0,24(sp)
    80000694:	02010413          	addi	s0,sp,32
    80000698:	00050793          	mv	a5,a0
    8000069c:	00058713          	mv	a4,a1
    800006a0:	fef41723          	sh	a5,-18(s0)
    800006a4:	00070793          	mv	a5,a4
    800006a8:	fef406a3          	sb	a5,-19(s0)
	crc = (uint8_t)(crc >> 8) | (crc << 8);
    800006ac:	fee45783          	lhu	a5,-18(s0)
    800006b0:	0087d79b          	srliw	a5,a5,0x8
    800006b4:	03079793          	slli	a5,a5,0x30
    800006b8:	0307d793          	srli	a5,a5,0x30
    800006bc:	0ff7f793          	zext.b	a5,a5
    800006c0:	0107971b          	slliw	a4,a5,0x10
    800006c4:	4107571b          	sraiw	a4,a4,0x10
    800006c8:	fee45783          	lhu	a5,-18(s0)
    800006cc:	0007879b          	sext.w	a5,a5
    800006d0:	0087979b          	slliw	a5,a5,0x8
    800006d4:	0007879b          	sext.w	a5,a5
    800006d8:	0107979b          	slliw	a5,a5,0x10
    800006dc:	4107d79b          	sraiw	a5,a5,0x10
    800006e0:	00f767b3          	or	a5,a4,a5
    800006e4:	0107979b          	slliw	a5,a5,0x10
    800006e8:	4107d79b          	sraiw	a5,a5,0x10
    800006ec:	fef41723          	sh	a5,-18(s0)
	crc ^= data;
    800006f0:	fed44783          	lbu	a5,-19(s0)
    800006f4:	03079793          	slli	a5,a5,0x30
    800006f8:	0307d793          	srli	a5,a5,0x30
    800006fc:	fee45703          	lhu	a4,-18(s0)
    80000700:	00e7c7b3          	xor	a5,a5,a4
    80000704:	fef41723          	sh	a5,-18(s0)
	crc ^= (uint8_t)(crc >> 4) & 0xf;
    80000708:	fee45783          	lhu	a5,-18(s0)
    8000070c:	0047d79b          	srliw	a5,a5,0x4
    80000710:	03079793          	slli	a5,a5,0x30
    80000714:	0307d793          	srli	a5,a5,0x30
    80000718:	0ff7f793          	zext.b	a5,a5
    8000071c:	0107979b          	slliw	a5,a5,0x10
    80000720:	4107d79b          	sraiw	a5,a5,0x10
    80000724:	00f7f793          	andi	a5,a5,15
    80000728:	0107971b          	slliw	a4,a5,0x10
    8000072c:	4107571b          	sraiw	a4,a4,0x10
    80000730:	fee41783          	lh	a5,-18(s0)
    80000734:	00f747b3          	xor	a5,a4,a5
    80000738:	0107979b          	slliw	a5,a5,0x10
    8000073c:	4107d79b          	sraiw	a5,a5,0x10
    80000740:	fef41723          	sh	a5,-18(s0)
	crc ^= crc << 12;
    80000744:	fee45783          	lhu	a5,-18(s0)
    80000748:	0007879b          	sext.w	a5,a5
    8000074c:	00c7979b          	slliw	a5,a5,0xc
    80000750:	0007879b          	sext.w	a5,a5
    80000754:	0107971b          	slliw	a4,a5,0x10
    80000758:	4107571b          	sraiw	a4,a4,0x10
    8000075c:	fee41783          	lh	a5,-18(s0)
    80000760:	00f747b3          	xor	a5,a4,a5
    80000764:	0107979b          	slliw	a5,a5,0x10
    80000768:	4107d79b          	sraiw	a5,a5,0x10
    8000076c:	fef41723          	sh	a5,-18(s0)
	crc ^= (crc & 0xff) << 5;
    80000770:	fee45783          	lhu	a5,-18(s0)
    80000774:	0007879b          	sext.w	a5,a5
    80000778:	0057979b          	slliw	a5,a5,0x5
    8000077c:	0007879b          	sext.w	a5,a5
    80000780:	0107971b          	slliw	a4,a5,0x10
    80000784:	4107571b          	sraiw	a4,a4,0x10
    80000788:	000027b7          	lui	a5,0x2
    8000078c:	fe078793          	addi	a5,a5,-32 # 1fe0 <_prog_start-0x7fffe020>
    80000790:	00f777b3          	and	a5,a4,a5
    80000794:	0107971b          	slliw	a4,a5,0x10
    80000798:	4107571b          	sraiw	a4,a4,0x10
    8000079c:	fee41783          	lh	a5,-18(s0)
    800007a0:	00f747b3          	xor	a5,a4,a5
    800007a4:	0107979b          	slliw	a5,a5,0x10
    800007a8:	4107d79b          	sraiw	a5,a5,0x10
    800007ac:	fef41723          	sh	a5,-18(s0)
	return crc;
    800007b0:	fee45783          	lhu	a5,-18(s0)
}
    800007b4:	00078513          	mv	a0,a5
    800007b8:	01813403          	ld	s0,24(sp)
    800007bc:	02010113          	addi	sp,sp,32
    800007c0:	00008067          	ret

00000000800007c4 <copy>:
#define SPIN_INDEX(i)	(((i) >> SPIN_SHIFT) & 0x3)

static const char spinner[] = { '-', '/', '|', '\\' };

static int copy(void)
{
    800007c4:	fc010113          	addi	sp,sp,-64
    800007c8:	02113c23          	sd	ra,56(sp)
    800007cc:	02813823          	sd	s0,48(sp)
    800007d0:	04010413          	addi	s0,sp,64
	volatile uint8_t *p = (void *)(PAYLOAD_DEST);
    800007d4:	08100793          	li	a5,129
    800007d8:	01879793          	slli	a5,a5,0x18
    800007dc:	fef43423          	sd	a5,-24(s0)
	long i = PAYLOAD_SIZE;
    800007e0:	000017b7          	lui	a5,0x1
    800007e4:	80078793          	addi	a5,a5,-2048 # 800 <_prog_start-0x7ffff800>
    800007e8:	fef43023          	sd	a5,-32(s0)
	int rc = 0;
    800007ec:	fc042e23          	sw	zero,-36(s0)

	dputs("CMD18");
    800007f0:	00000517          	auipc	a0,0x0
    800007f4:	62050513          	addi	a0,a0,1568 # 80000e10 <uart+0x40>
    800007f8:	300000ef          	jal	ra,80000af8 <kputs>

//	kprintf("LOADING 0x%xB PAYLOAD\r\n", PAYLOAD_SIZE_B);
	kprintf("LOADING  ");
    800007fc:	00000517          	auipc	a0,0x0
    80000800:	61c50513          	addi	a0,a0,1564 # 80000e18 <uart+0x48>
    80000804:	334000ef          	jal	ra,80000b38 <kprintf>

	// TODO: Speed up SPI freq. (breaks between these two values)
	//REG32(spi, SPI_REG_SCKDIV) = (F_CLK / 16666666UL);
	REG32(spi, SPI_REG_SCKDIV) = (F_CLK / 5000000UL);
    80000808:	640037b7          	lui	a5,0x64003
    8000080c:	0007a023          	sw	zero,0(a5) # 64003000 <_prog_start-0x1bffd000>
	// Read multiple block 8'b0101_0010
	if (sd_cmd(0x52, BBL_PARTITION_START_SECTOR, 0x51) != 0x00) {
    80000810:	05100613          	li	a2,81
    80000814:	000015b7          	lui	a1,0x1
    80000818:	05200513          	li	a0,82
    8000081c:	9e5ff0ef          	jal	ra,80000200 <sd_cmd>
    80000820:	00050793          	mv	a5,a0
    80000824:	00078863          	beqz	a5,80000834 <copy+0x70>
		sd_cmd_end();
    80000828:	ae9ff0ef          	jal	ra,80000310 <sd_cmd_end>
		return 1;
    8000082c:	00100793          	li	a5,1
    80000830:	1400006f          	j	80000970 <copy+0x1ac>
	}
	do {
		uint16_t crc, crc_exp;
		long n;

		crc = 0;
    80000834:	fc041d23          	sh	zero,-38(s0)
		n = SECTOR_SIZE_B;
    80000838:	20000793          	li	a5,512
    8000083c:	fcf43823          	sd	a5,-48(s0)
		while (sd_dummy() != 0xFE);
    80000840:	00000013          	nop
    80000844:	98dff0ef          	jal	ra,800001d0 <sd_dummy>
    80000848:	00050793          	mv	a5,a0
    8000084c:	00078713          	mv	a4,a5
    80000850:	0fe00793          	li	a5,254
    80000854:	fef718e3          	bne	a4,a5,80000844 <copy+0x80>
		do {
			uint8_t x = sd_dummy();
    80000858:	979ff0ef          	jal	ra,800001d0 <sd_dummy>
    8000085c:	00050793          	mv	a5,a0
    80000860:	fcf407a3          	sb	a5,-49(s0)
			*p++ = x;
    80000864:	fe843783          	ld	a5,-24(s0)
    80000868:	00178713          	addi	a4,a5,1
    8000086c:	fee43423          	sd	a4,-24(s0)
    80000870:	fcf44703          	lbu	a4,-49(s0)
    80000874:	00e78023          	sb	a4,0(a5)
			crc = crc16_round(crc, x);
    80000878:	fcf44703          	lbu	a4,-49(s0)
    8000087c:	fda45783          	lhu	a5,-38(s0)
    80000880:	00070593          	mv	a1,a4
    80000884:	00078513          	mv	a0,a5
    80000888:	e05ff0ef          	jal	ra,8000068c <crc16_round>
    8000088c:	00050793          	mv	a5,a0
    80000890:	fcf41d23          	sh	a5,-38(s0)
		} while (--n > 0);
    80000894:	fd043783          	ld	a5,-48(s0)
    80000898:	fff78793          	addi	a5,a5,-1
    8000089c:	fcf43823          	sd	a5,-48(s0)
    800008a0:	fd043783          	ld	a5,-48(s0)
    800008a4:	faf04ae3          	bgtz	a5,80000858 <copy+0x94>

		crc_exp = ((uint16_t)sd_dummy() << 8);
    800008a8:	929ff0ef          	jal	ra,800001d0 <sd_dummy>
    800008ac:	00050793          	mv	a5,a0
    800008b0:	0087979b          	slliw	a5,a5,0x8
    800008b4:	fcf41623          	sh	a5,-52(s0)
		crc_exp |= sd_dummy();
    800008b8:	919ff0ef          	jal	ra,800001d0 <sd_dummy>
    800008bc:	00050793          	mv	a5,a0
    800008c0:	00078713          	mv	a4,a5
    800008c4:	fcc45783          	lhu	a5,-52(s0)
    800008c8:	00f767b3          	or	a5,a4,a5
    800008cc:	fcf41623          	sh	a5,-52(s0)

		if (crc != crc_exp) {
    800008d0:	fda45703          	lhu	a4,-38(s0)
    800008d4:	fcc45783          	lhu	a5,-52(s0)
    800008d8:	0007071b          	sext.w	a4,a4
    800008dc:	0007879b          	sext.w	a5,a5
    800008e0:	00f70e63          	beq	a4,a5,800008fc <copy+0x138>
			kputs("\b- CRC mismatch ");
    800008e4:	00000517          	auipc	a0,0x0
    800008e8:	54450513          	addi	a0,a0,1348 # 80000e28 <uart+0x58>
    800008ec:	20c000ef          	jal	ra,80000af8 <kputs>
			rc = 1;
    800008f0:	00100793          	li	a5,1
    800008f4:	fcf42e23          	sw	a5,-36(s0)
			break;
    800008f8:	0500006f          	j	80000948 <copy+0x184>
		}

		if (SPIN_UPDATE(i)) {
    800008fc:	fe043783          	ld	a5,-32(s0)
    80000900:	03f7f793          	andi	a5,a5,63
    80000904:	02079863          	bnez	a5,80000934 <copy+0x170>
			kputc('\b');
    80000908:	00800513          	li	a0,8
    8000090c:	811ff0ef          	jal	ra,8000011c <kputc>
			kputc(spinner[SPIN_INDEX(i)]);
    80000910:	fe043783          	ld	a5,-32(s0)
    80000914:	4067d793          	srai	a5,a5,0x6
    80000918:	0037f793          	andi	a5,a5,3
    8000091c:	00000717          	auipc	a4,0x0
    80000920:	4ac70713          	addi	a4,a4,1196 # 80000dc8 <spinner>
    80000924:	00f707b3          	add	a5,a4,a5
    80000928:	0007c783          	lbu	a5,0(a5)
    8000092c:	00078513          	mv	a0,a5
    80000930:	fecff0ef          	jal	ra,8000011c <kputc>
		}
	} while (--i > 0);
    80000934:	fe043783          	ld	a5,-32(s0)
    80000938:	fff78793          	addi	a5,a5,-1
    8000093c:	fef43023          	sd	a5,-32(s0)
    80000940:	fe043783          	ld	a5,-32(s0)
    80000944:	eef048e3          	bgtz	a5,80000834 <copy+0x70>
	sd_cmd_end();
    80000948:	9c9ff0ef          	jal	ra,80000310 <sd_cmd_end>

	// 	Stop to read data (CMD12) 8'b0100_1100
	sd_cmd(0x4C, 0, 0x01);
    8000094c:	00100613          	li	a2,1
    80000950:	00000593          	li	a1,0
    80000954:	04c00513          	li	a0,76
    80000958:	8a9ff0ef          	jal	ra,80000200 <sd_cmd>
	sd_cmd_end();
    8000095c:	9b5ff0ef          	jal	ra,80000310 <sd_cmd_end>
	kputs("\b ");
    80000960:	00000517          	auipc	a0,0x0
    80000964:	4e050513          	addi	a0,a0,1248 # 80000e40 <uart+0x70>
    80000968:	190000ef          	jal	ra,80000af8 <kputs>
	return rc;
    8000096c:	fdc42783          	lw	a5,-36(s0)
}
    80000970:	00078513          	mv	a0,a5
    80000974:	03813083          	ld	ra,56(sp)
    80000978:	03013403          	ld	s0,48(sp)
    8000097c:	04010113          	addi	sp,sp,64
    80000980:	00008067          	ret

0000000080000984 <main>:

int main(int mhartid, char** dump)
{
    80000984:	fe010113          	addi	sp,sp,-32
    80000988:	00113c23          	sd	ra,24(sp)
    8000098c:	00813823          	sd	s0,16(sp)
    80000990:	02010413          	addi	s0,sp,32
    80000994:	00050793          	mv	a5,a0
    80000998:	feb43023          	sd	a1,-32(s0)
    8000099c:	fef42623          	sw	a5,-20(s0)
	REG32(uart, UART_REG_TXCTRL) = UART_TXEN;
    800009a0:	640007b7          	lui	a5,0x64000
    800009a4:	00878793          	addi	a5,a5,8 # 64000008 <_prog_start-0x1bfffff8>
    800009a8:	00100713          	li	a4,1
    800009ac:	00e7a023          	sw	a4,0(a5)
	// 		return 1;
	// 	}
	// 	kputs("FINISH");
	// }

	kputs("");
    800009b0:	00000517          	auipc	a0,0x0
    800009b4:	49850513          	addi	a0,a0,1176 # 80000e48 <uart+0x78>
    800009b8:	140000ef          	jal	ra,80000af8 <kputs>
	if (mhartid == 0) {
    800009bc:	fec42783          	lw	a5,-20(s0)
    800009c0:	0007879b          	sext.w	a5,a5
    800009c4:	00079863          	bnez	a5,800009d4 <main+0x50>
		kputs("BOOTING from core 0");
    800009c8:	00000517          	auipc	a0,0x0
    800009cc:	48850513          	addi	a0,a0,1160 # 80000e50 <uart+0x80>
    800009d0:	128000ef          	jal	ra,80000af8 <kputs>
	}
	if (mhartid == 1) {
    800009d4:	fec42783          	lw	a5,-20(s0)
    800009d8:	0007871b          	sext.w	a4,a5
    800009dc:	00100793          	li	a5,1
    800009e0:	00f71863          	bne	a4,a5,800009f0 <main+0x6c>
		kputs("BOOTING from core 1");
    800009e4:	00000517          	auipc	a0,0x0
    800009e8:	48450513          	addi	a0,a0,1156 # 80000e68 <uart+0x98>
    800009ec:	10c000ef          	jal	ra,80000af8 <kputs>
	}
    if (mhartid == 2) {
    800009f0:	fec42783          	lw	a5,-20(s0)
    800009f4:	0007871b          	sext.w	a4,a5
    800009f8:	00200793          	li	a5,2
    800009fc:	00f71863          	bne	a4,a5,80000a0c <main+0x88>
		kputs("BOOTING from core 2");;
    80000a00:	00000517          	auipc	a0,0x0
    80000a04:	48050513          	addi	a0,a0,1152 # 80000e80 <uart+0xb0>
    80000a08:	0f0000ef          	jal	ra,80000af8 <kputs>
	}
    if (mhartid == 3) {
    80000a0c:	fec42783          	lw	a5,-20(s0)
    80000a10:	0007871b          	sext.w	a4,a5
    80000a14:	00300793          	li	a5,3
    80000a18:	00f71863          	bne	a4,a5,80000a28 <main+0xa4>
		kputs("BOOTING from core 3");
    80000a1c:	00000517          	auipc	a0,0x0
    80000a20:	47c50513          	addi	a0,a0,1148 # 80000e98 <uart+0xc8>
    80000a24:	0d4000ef          	jal	ra,80000af8 <kputs>
	}

	__asm__ __volatile__ ("fence.i" : : : "memory");
    80000a28:	0000100f          	fence.i

	return 0;
    80000a2c:	00000793          	li	a5,0
}
    80000a30:	00078513          	mv	a0,a5
    80000a34:	01813083          	ld	ra,24(sp)
    80000a38:	01013403          	ld	s0,16(sp)
    80000a3c:	02010113          	addi	sp,sp,32
    80000a40:	00008067          	ret

0000000080000a44 <kputc>:
{
    80000a44:	fd010113          	addi	sp,sp,-48
    80000a48:	02813423          	sd	s0,40(sp)
    80000a4c:	03010413          	addi	s0,sp,48
    80000a50:	00050793          	mv	a5,a0
    80000a54:	fcf40fa3          	sb	a5,-33(s0)
	volatile uint32_t *tx = &REG32(uart, UART_REG_TXFIFO);
    80000a58:	640007b7          	lui	a5,0x64000
    80000a5c:	fef43423          	sd	a5,-24(s0)
		__asm__ __volatile__ (
    80000a60:	fe843703          	ld	a4,-24(s0)
    80000a64:	fdf44783          	lbu	a5,-33(s0)
    80000a68:	00078693          	mv	a3,a5
    80000a6c:	fe843783          	ld	a5,-24(s0)
    80000a70:	40d727af          	amoor.w	a5,a3,(a4)
    80000a74:	fef42223          	sw	a5,-28(s0)
	} while (r < 0);
    80000a78:	fe442783          	lw	a5,-28(s0)
    80000a7c:	0007879b          	sext.w	a5,a5
    80000a80:	fe07c0e3          	bltz	a5,80000a60 <kputc+0x1c>
}
    80000a84:	00000013          	nop
    80000a88:	00000013          	nop
    80000a8c:	02813403          	ld	s0,40(sp)
    80000a90:	03010113          	addi	sp,sp,48
    80000a94:	00008067          	ret

0000000080000a98 <_kputs>:
#include <stdbool.h>

#include "kprintf.h"

static inline void _kputs(const char *s)
{
    80000a98:	fd010113          	addi	sp,sp,-48
    80000a9c:	02113423          	sd	ra,40(sp)
    80000aa0:	02813023          	sd	s0,32(sp)
    80000aa4:	03010413          	addi	s0,sp,48
    80000aa8:	fca43c23          	sd	a0,-40(s0)
	char c;
	for (; (c = *s) != '\0'; s++)
    80000aac:	01c0006f          	j	80000ac8 <_kputs+0x30>
		kputc(c);
    80000ab0:	fef44783          	lbu	a5,-17(s0)
    80000ab4:	00078513          	mv	a0,a5
    80000ab8:	f8dff0ef          	jal	ra,80000a44 <kputc>
	for (; (c = *s) != '\0'; s++)
    80000abc:	fd843783          	ld	a5,-40(s0)
    80000ac0:	00178793          	addi	a5,a5,1 # 64000001 <_prog_start-0x1bffffff>
    80000ac4:	fcf43c23          	sd	a5,-40(s0)
    80000ac8:	fd843783          	ld	a5,-40(s0)
    80000acc:	0007c783          	lbu	a5,0(a5)
    80000ad0:	fef407a3          	sb	a5,-17(s0)
    80000ad4:	fef44783          	lbu	a5,-17(s0)
    80000ad8:	0ff7f793          	zext.b	a5,a5
    80000adc:	fc079ae3          	bnez	a5,80000ab0 <_kputs+0x18>
}
    80000ae0:	00000013          	nop
    80000ae4:	00000013          	nop
    80000ae8:	02813083          	ld	ra,40(sp)
    80000aec:	02013403          	ld	s0,32(sp)
    80000af0:	03010113          	addi	sp,sp,48
    80000af4:	00008067          	ret

0000000080000af8 <kputs>:

void kputs(const char *s)
{
    80000af8:	fe010113          	addi	sp,sp,-32
    80000afc:	00113c23          	sd	ra,24(sp)
    80000b00:	00813823          	sd	s0,16(sp)
    80000b04:	02010413          	addi	s0,sp,32
    80000b08:	fea43423          	sd	a0,-24(s0)
	_kputs(s);
    80000b0c:	fe843503          	ld	a0,-24(s0)
    80000b10:	f89ff0ef          	jal	ra,80000a98 <_kputs>
	kputc('\r');
    80000b14:	00d00513          	li	a0,13
    80000b18:	f2dff0ef          	jal	ra,80000a44 <kputc>
	kputc('\n');
    80000b1c:	00a00513          	li	a0,10
    80000b20:	f25ff0ef          	jal	ra,80000a44 <kputc>
}
    80000b24:	00000013          	nop
    80000b28:	01813083          	ld	ra,24(sp)
    80000b2c:	01013403          	ld	s0,16(sp)
    80000b30:	02010113          	addi	sp,sp,32
    80000b34:	00008067          	ret

0000000080000b38 <kprintf>:

void kprintf(const char *fmt, ...)
{
    80000b38:	f7010113          	addi	sp,sp,-144
    80000b3c:	04113423          	sd	ra,72(sp)
    80000b40:	04813023          	sd	s0,64(sp)
    80000b44:	05010413          	addi	s0,sp,80
    80000b48:	faa43c23          	sd	a0,-72(s0)
    80000b4c:	00b43423          	sd	a1,8(s0)
    80000b50:	00c43823          	sd	a2,16(s0)
    80000b54:	00d43c23          	sd	a3,24(s0)
    80000b58:	02e43023          	sd	a4,32(s0)
    80000b5c:	02f43423          	sd	a5,40(s0)
    80000b60:	03043823          	sd	a6,48(s0)
    80000b64:	03143c23          	sd	a7,56(s0)
	va_list vl;
	bool is_format, is_long, is_char;
	char c;

	va_start(vl, fmt);
    80000b68:	04040793          	addi	a5,s0,64
    80000b6c:	faf43823          	sd	a5,-80(s0)
    80000b70:	fb043783          	ld	a5,-80(s0)
    80000b74:	fc878793          	addi	a5,a5,-56
    80000b78:	fcf43023          	sd	a5,-64(s0)
	is_format = false;
    80000b7c:	fe0407a3          	sb	zero,-17(s0)
	is_long = false;
    80000b80:	fe040723          	sb	zero,-18(s0)
	is_char = false;
    80000b84:	fe0406a3          	sb	zero,-19(s0)
	while ((c = *fmt++) != '\0') {
    80000b88:	1b80006f          	j	80000d40 <kprintf+0x208>
		if (is_format) {
    80000b8c:	fef44783          	lbu	a5,-17(s0)
    80000b90:	0ff7f793          	zext.b	a5,a5
    80000b94:	18078263          	beqz	a5,80000d18 <kprintf+0x1e0>
			switch (c) {
    80000b98:	fd744783          	lbu	a5,-41(s0)
    80000b9c:	0007879b          	sext.w	a5,a5
    80000ba0:	f9d7869b          	addiw	a3,a5,-99
    80000ba4:	0006871b          	sext.w	a4,a3
    80000ba8:	01500793          	li	a5,21
    80000bac:	14e7ee63          	bltu	a5,a4,80000d08 <kprintf+0x1d0>
    80000bb0:	02069793          	slli	a5,a3,0x20
    80000bb4:	0207d793          	srli	a5,a5,0x20
    80000bb8:	00279713          	slli	a4,a5,0x2
    80000bbc:	00000797          	auipc	a5,0x0
    80000bc0:	2f078793          	addi	a5,a5,752 # 80000eac <uart+0xdc>
    80000bc4:	00f707b3          	add	a5,a4,a5
    80000bc8:	0007a783          	lw	a5,0(a5)
    80000bcc:	0007871b          	sext.w	a4,a5
    80000bd0:	00000797          	auipc	a5,0x0
    80000bd4:	2dc78793          	addi	a5,a5,732 # 80000eac <uart+0xdc>
    80000bd8:	00f707b3          	add	a5,a4,a5
    80000bdc:	00078067          	jr	a5
			case 'l':
				is_long = true;
    80000be0:	00100793          	li	a5,1
    80000be4:	fef40723          	sb	a5,-18(s0)
				continue;
    80000be8:	1580006f          	j	80000d40 <kprintf+0x208>
			case 'h':
				is_char = true;
    80000bec:	00100793          	li	a5,1
    80000bf0:	fef406a3          	sb	a5,-19(s0)
				continue;
    80000bf4:	14c0006f          	j	80000d40 <kprintf+0x208>
			case 'x': {
				unsigned long n;
				long i;
				if (is_long) {
    80000bf8:	fee44783          	lbu	a5,-18(s0)
    80000bfc:	0ff7f793          	zext.b	a5,a5
    80000c00:	02078263          	beqz	a5,80000c24 <kprintf+0xec>
					n = va_arg(vl, unsigned long);
    80000c04:	fc043783          	ld	a5,-64(s0)
    80000c08:	00878713          	addi	a4,a5,8
    80000c0c:	fce43023          	sd	a4,-64(s0)
    80000c10:	0007b783          	ld	a5,0(a5)
    80000c14:	fef43023          	sd	a5,-32(s0)
					i = (sizeof(unsigned long) << 3) - 4;
    80000c18:	03c00793          	li	a5,60
    80000c1c:	fcf43c23          	sd	a5,-40(s0)
    80000c20:	0a00006f          	j	80000cc0 <kprintf+0x188>
				} else {
					n = va_arg(vl, unsigned int);
    80000c24:	fc043783          	ld	a5,-64(s0)
    80000c28:	00878713          	addi	a4,a5,8
    80000c2c:	fce43023          	sd	a4,-64(s0)
    80000c30:	0007a783          	lw	a5,0(a5)
    80000c34:	02079793          	slli	a5,a5,0x20
    80000c38:	0207d793          	srli	a5,a5,0x20
    80000c3c:	fef43023          	sd	a5,-32(s0)
					i = is_char ? 4 : (sizeof(unsigned int) << 3) - 4;
    80000c40:	fed44783          	lbu	a5,-19(s0)
    80000c44:	0ff7f793          	zext.b	a5,a5
    80000c48:	00078663          	beqz	a5,80000c54 <kprintf+0x11c>
    80000c4c:	00400793          	li	a5,4
    80000c50:	0080006f          	j	80000c58 <kprintf+0x120>
    80000c54:	01c00793          	li	a5,28
    80000c58:	fcf43c23          	sd	a5,-40(s0)
				}
				for (; i >= 0; i -= 4) {
    80000c5c:	0640006f          	j	80000cc0 <kprintf+0x188>
					long d;
					d = (n >> i) & 0xF;
    80000c60:	fd843783          	ld	a5,-40(s0)
    80000c64:	0007879b          	sext.w	a5,a5
    80000c68:	00078713          	mv	a4,a5
    80000c6c:	fe043783          	ld	a5,-32(s0)
    80000c70:	00e7d7b3          	srl	a5,a5,a4
    80000c74:	00f7f793          	andi	a5,a5,15
    80000c78:	fcf43423          	sd	a5,-56(s0)
					kputc(d < 10 ? '0' + d : 'a' + d - 10);
    80000c7c:	fc843703          	ld	a4,-56(s0)
    80000c80:	00900793          	li	a5,9
    80000c84:	00e7cc63          	blt	a5,a4,80000c9c <kprintf+0x164>
    80000c88:	fc843783          	ld	a5,-56(s0)
    80000c8c:	0ff7f793          	zext.b	a5,a5
    80000c90:	0307879b          	addiw	a5,a5,48
    80000c94:	0ff7f793          	zext.b	a5,a5
    80000c98:	0140006f          	j	80000cac <kprintf+0x174>
    80000c9c:	fc843783          	ld	a5,-56(s0)
    80000ca0:	0ff7f793          	zext.b	a5,a5
    80000ca4:	0577879b          	addiw	a5,a5,87
    80000ca8:	0ff7f793          	zext.b	a5,a5
    80000cac:	00078513          	mv	a0,a5
    80000cb0:	d95ff0ef          	jal	ra,80000a44 <kputc>
				for (; i >= 0; i -= 4) {
    80000cb4:	fd843783          	ld	a5,-40(s0)
    80000cb8:	ffc78793          	addi	a5,a5,-4
    80000cbc:	fcf43c23          	sd	a5,-40(s0)
    80000cc0:	fd843783          	ld	a5,-40(s0)
    80000cc4:	f807dee3          	bgez	a5,80000c60 <kprintf+0x128>
				}
				break;
    80000cc8:	0400006f          	j	80000d08 <kprintf+0x1d0>
			}
			case 's':
				_kputs(va_arg(vl, const char *));
    80000ccc:	fc043783          	ld	a5,-64(s0)
    80000cd0:	00878713          	addi	a4,a5,8
    80000cd4:	fce43023          	sd	a4,-64(s0)
    80000cd8:	0007b783          	ld	a5,0(a5)
    80000cdc:	00078513          	mv	a0,a5
    80000ce0:	db9ff0ef          	jal	ra,80000a98 <_kputs>
				break;
    80000ce4:	0240006f          	j	80000d08 <kprintf+0x1d0>
			case 'c':
				kputc(va_arg(vl, int));
    80000ce8:	fc043783          	ld	a5,-64(s0)
    80000cec:	00878713          	addi	a4,a5,8
    80000cf0:	fce43023          	sd	a4,-64(s0)
    80000cf4:	0007a783          	lw	a5,0(a5)
    80000cf8:	0ff7f793          	zext.b	a5,a5
    80000cfc:	00078513          	mv	a0,a5
    80000d00:	d45ff0ef          	jal	ra,80000a44 <kputc>
				break;
    80000d04:	00000013          	nop
			}
			is_format = false;
    80000d08:	fe0407a3          	sb	zero,-17(s0)
			is_long = false;
    80000d0c:	fe040723          	sb	zero,-18(s0)
			is_char = false;
    80000d10:	fe0406a3          	sb	zero,-19(s0)
    80000d14:	02c0006f          	j	80000d40 <kprintf+0x208>
		} else if (c == '%') {
    80000d18:	fd744783          	lbu	a5,-41(s0)
    80000d1c:	0ff7f713          	zext.b	a4,a5
    80000d20:	02500793          	li	a5,37
    80000d24:	00f71863          	bne	a4,a5,80000d34 <kprintf+0x1fc>
			is_format = true;
    80000d28:	00100793          	li	a5,1
    80000d2c:	fef407a3          	sb	a5,-17(s0)
    80000d30:	0100006f          	j	80000d40 <kprintf+0x208>
		} else {
			kputc(c);
    80000d34:	fd744783          	lbu	a5,-41(s0)
    80000d38:	00078513          	mv	a0,a5
    80000d3c:	d09ff0ef          	jal	ra,80000a44 <kputc>
	while ((c = *fmt++) != '\0') {
    80000d40:	fb843783          	ld	a5,-72(s0)
    80000d44:	00178713          	addi	a4,a5,1
    80000d48:	fae43c23          	sd	a4,-72(s0)
    80000d4c:	0007c783          	lbu	a5,0(a5)
    80000d50:	fcf40ba3          	sb	a5,-41(s0)
    80000d54:	fd744783          	lbu	a5,-41(s0)
    80000d58:	0ff7f793          	zext.b	a5,a5
    80000d5c:	e20798e3          	bnez	a5,80000b8c <kprintf+0x54>
		}
	}
	va_end(vl);
}
    80000d60:	00000013          	nop
    80000d64:	00000013          	nop
    80000d68:	04813083          	ld	ra,72(sp)
    80000d6c:	04013403          	ld	s0,64(sp)
    80000d70:	09010113          	addi	sp,sp,144
    80000d74:	00008067          	ret
	...

Disassembly of section .srodata:

0000000080000db8 <uart>:
static volatile uint32_t * const uart = (void *)(UART_CTRL_ADDR);
    80000db8:	0000                	.2byte	0x0
    80000dba:	6400                	.2byte	0x6400
    80000dbc:	0000                	.2byte	0x0
	...

0000000080000dc0 <spi>:
static volatile uint32_t * const spi = (void *)(SPI_CTRL_ADDR);
    80000dc0:	3000                	.2byte	0x3000
    80000dc2:	6400                	.2byte	0x6400
    80000dc4:	0000                	.2byte	0x0
	...

0000000080000dc8 <spinner>:
static const char spinner[] = { '-', '/', '|', '\\' };
    80000dc8:	2f2d                	.2byte	0x2f2d
    80000dca:	5c7c                	.2byte	0x5c7c
    80000dcc:	0000                	.2byte	0x0
	...

0000000080000dd0 <uart>:
    80000dd0:	0000                	.2byte	0x0
    80000dd2:	6400                	.2byte	0x6400
    80000dd4:	0000                	.2byte	0x0
	...
